; Function Attrs: nounwind uwtable
define i32 @MOZ_Z_gzclose_w(ptr noundef %0) local_unnamed_addr #0 {
  %2 = icmp eq ptr %0, null
  br i1 %2, label %66, label %3

3:                                                ; preds = %1
  %4 = getelementptr inbounds nuw i8, ptr %0, i64 24
  %5 = load i32, ptr %4, align 8, !tbaa !3
  %.not = icmp eq i32 %5, 31153
  br i1 %.not, label %6, label %66

6:                                                ; preds = %3
  %7 = getelementptr inbounds nuw i8, ptr %0, i64 104
  %8 = load i32, ptr %7, align 8, !tbaa !16
  %.not22 = icmp eq i32 %8, 0
  br i1 %.not22, label %gz_zero.exit, label %9

9:                                                ; preds = %6
  store i32 0, ptr %7, align 8, !tbaa !16
  %10 = getelementptr inbounds nuw i8, ptr %0, i64 96
  %11 = load i64, ptr %10, align 8, !tbaa !17
  %12 = getelementptr inbounds nuw i8, ptr %0, i64 120
  %13 = getelementptr inbounds nuw i8, ptr %0, i64 128
  %14 = load i32, ptr %13, align 8, !tbaa !18
  %.not.i = icmp eq i32 %14, 0
  br i1 %.not.i, label %18, label %15

15:                                               ; preds = %9
  %16 = tail call fastcc i32 @gz_comp(ptr noundef nonnull %0, i32 noundef 0)
  %17 = icmp eq i32 %16, -1
  br i1 %17, label %.loopexit, label %18

18:                                               ; preds = %15, %9
  %.not2224.i = icmp eq i64 %11, 0
  br i1 %.not2224.i, label %gz_zero.exit, label %.lr.ph.i

.lr.ph.i:                                         ; preds = %18
  %19 = getelementptr inbounds nuw i8, ptr %0, i64 40
  %20 = getelementptr inbounds nuw i8, ptr %0, i64 48
  %21 = getelementptr inbounds nuw i8, ptr %0, i64 16
  br label %24

22:                                               ; preds = %32
  %23 = sub nsw i64 %.02026.i, %.pre-phi.i
  %.not22.i = icmp eq i64 %23, 0
  br i1 %.not22.i, label %gz_zero.exit, label %24, !llvm.loop !19

24:                                               ; preds = %22, %.lr.ph.i
  %.02026.i = phi i64 [ %11, %.lr.ph.i ], [ %23, %22 ]
  %.not2325.i = phi i1 [ false, %.lr.ph.i ], [ true, %22 ]
  %25 = load i32, ptr %19, align 8, !tbaa !15
  %26 = zext i32 %25 to i64
  %27 = tail call i64 @llvm.smin.i64(i64 %.02026.i, i64 %26)
  %28 = trunc i64 %27 to i32
  br i1 %.not2325.i, label %._crit_edge.i, label %29

._crit_edge.i:                                    ; preds = %24
  %.pre.i = and i64 %27, 4294967295
  br label %32

29:                                               ; preds = %24
  %30 = load ptr, ptr %20, align 8, !tbaa !21
  %31 = and i64 %27, 4294967295
  tail call void @llvm.memset.p0.i64(ptr align 1 %30, i8 0, i64 %31, i1 false)
  br label %32

32:                                               ; preds = %29, %._crit_edge.i
  %.pre-phi.i = phi i64 [ %.pre.i, %._crit_edge.i ], [ %31, %29 ]
  store i32 %28, ptr %13, align 8, !tbaa !18
  %33 = load ptr, ptr %20, align 8, !tbaa !21
  store ptr %33, ptr %12, align 8, !tbaa !22
  %34 = load i64, ptr %21, align 8, !tbaa !23
  %35 = add nsw i64 %34, %.pre-phi.i
  store i64 %35, ptr %21, align 8, !tbaa !23
  %36 = tail call fastcc i32 @gz_comp(ptr noundef nonnull %0, i32 noundef 0)
  %37 = icmp eq i32 %36, -1
  br i1 %37, label %.loopexit, label %22

.loopexit:                                        ; preds = %32, %15
  %38 = getelementptr inbounds nuw i8, ptr %0, i64 108
  %39 = load i32, ptr %38, align 4, !tbaa !14
  br label %gz_zero.exit

gz_zero.exit:                                     ; preds = %22, %18, %.loopexit, %6
  %.020 = phi i32 [ %39, %.loopexit ], [ 0, %6 ], [ 0, %18 ], [ 0, %22 ]
  %40 = tail call fastcc i32 @gz_comp(ptr noundef %0, i32 noundef 4)
  %41 = icmp eq i32 %40, -1
  br i1 %41, label %42, label %45

42:                                               ; preds = %gz_zero.exit
  %43 = getelementptr inbounds nuw i8, ptr %0, i64 108
  %44 = load i32, ptr %43, align 4, !tbaa !14
  br label %45

45:                                               ; preds = %42, %gz_zero.exit
  %.1 = phi i32 [ %44, %42 ], [ %.020, %gz_zero.exit ]
  %46 = getelementptr inbounds nuw i8, ptr %0, i64 40
  %47 = load i32, ptr %46, align 8, !tbaa !15
  %.not23 = icmp eq i32 %47, 0
  br i1 %.not23, label %59, label %48

48:                                               ; preds = %45
  %49 = getelementptr inbounds nuw i8, ptr %0, i64 64
  %50 = load i32, ptr %49, align 8, !tbaa !26
  %.not24 = icmp eq i32 %50, 0
  br i1 %.not24, label %51, label %56

51:                                               ; preds = %48
  %52 = getelementptr inbounds nuw i8, ptr %0, i64 120
  %53 = tail call i32 @MOZ_Z_deflateEnd(ptr noundef nonnull %52) #14
  %54 = getelementptr inbounds nuw i8, ptr %0, i64 56
  %55 = load ptr, ptr %54, align 8, !tbaa !27
  tail call void @free(ptr noundef %55) #14
  br label %56

56:                                               ; preds = %51, %48
  %57 = getelementptr inbounds nuw i8, ptr %0, i64 48
  %58 = load ptr, ptr %57, align 8, !tbaa !21
  tail call void @free(ptr noundef %58) #14
  br label %59

59:                                               ; preds = %56, %45
  tail call void @MOZ_Z_gz_error(ptr noundef nonnull %0, i32 noundef 0, ptr noundef null) #14
  %60 = getelementptr inbounds nuw i8, ptr %0, i64 32
  %61 = load ptr, ptr %60, align 8, !tbaa !37
  tail call void @free(ptr noundef %61) #14
  %62 = getelementptr inbounds nuw i8, ptr %0, i64 28
  %63 = load i32, ptr %62, align 4, !tbaa !33
  %64 = tail call i32 @close(i32 noundef %63) #14
  %65 = icmp eq i32 %64, -1
  %spec.select = select i1 %65, i32 -1, i32 %.1
  tail call void @free(ptr noundef nonnull %0) #14
  br label %66

66:                                               ; preds = %3, %1, %59
  %.0 = phi i32 [ %spec.select, %59 ], [ -2, %1 ], [ -2, %3 ]
  ret i32 %.0
}